target datalayout = "e-m:e-p270:32:32-p271:32:32-p272:64:64-i64:64-i128:128-f80:128-n8:16:32:64-S128"
target triple = "x86_64-unknown-linux-gnu"

%"class.arrow::Status" = type { ptr }

@.str.5 = private unnamed_addr constant [22 x i8] c"arenas.dirty_decay_ms\00", align 1
@.str.6 = private unnamed_addr constant [22 x i8] c"arenas.muzzy_decay_ms\00", align 1

; Function Attrs: mustprogress nounwind uwtable
define linkonce_odr void @_ZN5arrow6StatusC2Ev(ptr noundef nonnull align 8 dereferenceable(8) %this) unnamed_addr #1 comdat align 2 {
entry:
  %this.addr = alloca ptr, align 8
  store ptr %this, ptr %this.addr, align 8
  %this1 = load ptr, ptr %this.addr, align 8
  %state_ = getelementptr inbounds %"class.arrow::Status", ptr %this1, i32 0, i32 0
  store ptr null, ptr %state_, align 8
  ret void
}

; Function Attrs: mustprogress nounwind uwtable
define linkonce_odr void @_ZN5arrow6Status2OKEv(ptr noalias sret(%"class.arrow::Status") align 8 %agg.result) #1 comdat align 2 {
entry:
  %result.ptr = alloca ptr, align 8
  store ptr %agg.result, ptr %result.ptr, align 8
  call void @_ZN5arrow6StatusC2Ev(ptr noundef nonnull align 8 dereferenceable(8) %agg.result) #16
  ret void
}

; Function Attrs: mustprogress uwtable
define linkonce_odr void @_ZN5arrow6Status12UnknownErrorIJPcEEES0_DpOT_(ptr noalias sret(%"class.arrow::Status") align 8 %agg.result, ptr noundef nonnull align 8 dereferenceable(8) %args) #0 comdat align 2 {
entry:
  %result.ptr = alloca ptr, align 8
  %args.addr = alloca ptr, align 8
  store ptr %agg.result, ptr %result.ptr, align 8
  store ptr %args, ptr %args.addr, align 8
  %0 = load ptr, ptr %args.addr, align 8
  call void @_ZN5arrow6Status8FromArgsIJPcEEES0_NS_10StatusCodeEDpOT_(ptr sret(%"class.arrow::Status") align 8 %agg.result, i8 noundef signext 9, ptr noundef nonnull align 8 dereferenceable(8) %0)
  ret void
}

; Function Attrs: mustprogress uwtable
define void @_ZN5arrow21jemalloc_set_decay_msEi(ptr noalias sret(%"class.arrow::Status") align 8 %agg.result, i32 noundef %ms) #0 {
entry:
  %result.ptr = alloca ptr, align 8
  %ms.addr = alloca i32, align 4
  %decay_time_ms = alloca i64, align 8
  %err = alloca i32, align 4
  %ref.tmp = alloca ptr, align 8
  %ref.tmp6 = alloca ptr, align 8
  store ptr %agg.result, ptr %result.ptr, align 8
  store i32 %ms, ptr %ms.addr, align 4
  %0 = load i32, ptr %ms.addr, align 4
  %conv = sext i32 %0 to i64
  store i64 %conv, ptr %decay_time_ms, align 8
  %call = call i32 @je_arrow_mallctl(ptr noundef @.str.5, ptr noundef null, ptr noundef null, ptr noundef %decay_time_ms, i64 noundef 8) #16
  store i32 %call, ptr %err, align 4
  br label %do.body

do.body:                                          ; preds = %entry
  %1 = load i32, ptr %err, align 4
  %cmp = icmp ne i32 %1, 0
  br i1 %cmp, label %if.then, label %if.end

if.then:                                          ; preds = %do.body
  %2 = load i32, ptr %err, align 4
  %call1 = call ptr @strerror(i32 noundef %2) #16
  store ptr %call1, ptr %ref.tmp, align 8
  call void @_ZN5arrow6Status12UnknownErrorIJPcEEES0_DpOT_(ptr sret(%"class.arrow::Status") align 8 %agg.result, ptr noundef nonnull align 8 dereferenceable(8) %ref.tmp)
  br label %return

if.end:                                           ; preds = %do.body
  br label %do.end

do.end:                                           ; preds = %if.end
  %call2 = call i32 @je_arrow_mallctl(ptr noundef @.str.6, ptr noundef null, ptr noundef null, ptr noundef %decay_time_ms, i64 noundef 8) #16
  store i32 %call2, ptr %err, align 4
  br label %do.body3

do.body3:                                         ; preds = %do.end
  %3 = load i32, ptr %err, align 4
  %cmp4 = icmp ne i32 %3, 0
  br i1 %cmp4, label %if.then5, label %if.end8

if.then5:                                         ; preds = %do.body3
  %4 = load i32, ptr %err, align 4
  %call7 = call ptr @strerror(i32 noundef %4) #16
  store ptr %call7, ptr %ref.tmp6, align 8
  call void @_ZN5arrow6Status12UnknownErrorIJPcEEES0_DpOT_(ptr sret(%"class.arrow::Status") align 8 %agg.result, ptr noundef nonnull align 8 dereferenceable(8) %ref.tmp6)
  br label %return

if.end8:                                          ; preds = %do.body3
  br label %do.end9

do.end9:                                          ; preds = %if.end8
  call void @_ZN5arrow6Status2OKEv(ptr sret(%"class.arrow::Status") align 8 %agg.result)
  br label %return

return:                                           ; preds = %do.end9, %if.then5, %if.then
  ret void
}