; Function Attrs: mustprogress uwtable
define void @_ZN5arrow21jemalloc_set_decay_msEi(ptr noalias sret(%"class.arrow::Status") align 8 %agg.result, i32 noundef %ms) local_unnamed_addr #0 {
entry:
  %decay_time_ms = alloca i64, align 8
  %ref.tmp = alloca ptr, align 8
  %ref.tmp6 = alloca ptr, align 8
  %conv = sext i32 %ms to i64
  store i64 %conv, ptr %decay_time_ms, align 8
  %call = call i32 @je_arrow_mallctl(ptr noundef nonnull @.str.5, ptr noundef null, ptr noundef null, ptr noundef nonnull %decay_time_ms, i64 noundef 8) #17
  %cmp.not = icmp eq i32 %call, 0
  br i1 %cmp.not, label %do.end, label %if.then

if.then:                                          ; preds = %entry
  %call1 = call ptr @strerror(i32 noundef %call) #17
  store ptr %call1, ptr %ref.tmp, align 8
  call void @_ZN5arrow6Status8FromArgsIJPcEEES0_NS_10StatusCodeEDpOT_(ptr sret(%"class.arrow::Status") align 8 %agg.result, i8 noundef signext 9, ptr noundef nonnull align 8 dereferenceable(8) %ref.tmp)
  br label %return

do.end:                                           ; preds = %entry
  %call2 = call i32 @je_arrow_mallctl(ptr noundef nonnull @.str.6, ptr noundef null, ptr noundef null, ptr noundef nonnull %decay_time_ms, i64 noundef 8) #17
  %cmp4.not = icmp eq i32 %call2, 0
  br i1 %cmp4.not, label %do.end9, label %if.then5

if.then5:                                         ; preds = %do.end
  %call7 = call ptr @strerror(i32 noundef %call2) #17
  store ptr %call7, ptr %ref.tmp6, align 8
  call void @_ZN5arrow6Status8FromArgsIJPcEEES0_NS_10StatusCodeEDpOT_(ptr sret(%"class.arrow::Status") align 8 %agg.result, i8 noundef signext 9, ptr noundef nonnull align 8 dereferenceable(8) %ref.tmp6)
  br label %return

do.end9:                                          ; preds = %do.end
  store ptr null, ptr %agg.result, align 8, !alias.scope !25
  br label %return

return:                                           ; preds = %do.end9, %if.then5, %if.then
  ret void
}